; Function Attrs: mustprogress nofree norecurse nosync nounwind willreturn memory(argmem: readwrite) uwtable
define internal noundef zeroext i1 @_ZNSt17_Function_handlerIFvRN14ArgumentParser8InstanceEEZN16cmArgumentParserIZN12_GLOBAL__N_135HandleGetRuntimeDependenciesCommandERKSt6vectorINSt7__cxx1112basic_stringIcSt11char_traitsIcESaIcEEESaISC_EER17cmExecutionStatusE9ArgumentsE4BindIMSJ_NS0_10MaybeEmptyISE_EESJ_SN_vvEERSK_N2cm18static_string_viewET_EUlS2_E_E10_M_managerERSt9_Any_dataRKSV_St18_Manager_operation(ptr noundef nonnull writeonly align 8 captures(none) dereferenceable(16) %0, ptr noundef nonnull align 8 dereferenceable(16) %1, i32 noundef %2) #18 align 2 personality ptr @__gxx_personality_v0 {
  switch i32 %2, label %_ZNSt14_Function_base13_Base_managerIZN16cmArgumentParserIZN12_GLOBAL__N_135HandleGetRuntimeDependenciesCommandERKSt6vectorINSt7__cxx1112basic_stringIcSt11char_traitsIcESaIcEEESaIS9_EER17cmExecutionStatusE9ArgumentsE4BindIMSG_N14ArgumentParser10MaybeEmptyISB_EESG_SL_vvEERSH_N2cm18static_string_viewET_EUlRNSJ_8InstanceEE_E10_M_managerERSt9_Any_dataRKSV_St18_Manager_operation.exit [
    i32 0, label %4
    i32 1, label %5
    i32 2, label %6
  ]

4:                                                ; preds = %3
  store ptr @_ZTIZN16cmArgumentParserIZN12_GLOBAL__N_135HandleGetRuntimeDependenciesCommandERKSt6vectorINSt7__cxx1112basic_stringIcSt11char_traitsIcESaIcEEESaIS7_EER17cmExecutionStatusE9ArgumentsE4BindIMSE_N14ArgumentParser10MaybeEmptyIS9_EESE_SJ_vvEERSF_N2cm18static_string_viewET_EUlRNSH_8InstanceEE_, ptr %0, align 8, !tbaa !1173
  br label %_ZNSt14_Function_base13_Base_managerIZN16cmArgumentParserIZN12_GLOBAL__N_135HandleGetRuntimeDependenciesCommandERKSt6vectorINSt7__cxx1112basic_stringIcSt11char_traitsIcESaIcEEESaIS9_EER17cmExecutionStatusE9ArgumentsE4BindIMSG_N14ArgumentParser10MaybeEmptyISB_EESG_SL_vvEERSH_N2cm18static_string_viewET_EUlRNSJ_8InstanceEE_E10_M_managerERSt9_Any_dataRKSV_St18_Manager_operation.exit

5:                                                ; preds = %3
  store ptr %1, ptr %0, align 8, !tbaa !1175
  br label %_ZNSt14_Function_base13_Base_managerIZN16cmArgumentParserIZN12_GLOBAL__N_135HandleGetRuntimeDependenciesCommandERKSt6vectorINSt7__cxx1112basic_stringIcSt11char_traitsIcESaIcEEESaIS9_EER17cmExecutionStatusE9ArgumentsE4BindIMSG_N14ArgumentParser10MaybeEmptyISB_EESG_SL_vvEERSH_N2cm18static_string_viewET_EUlRNSJ_8InstanceEE_E10_M_managerERSt9_Any_dataRKSV_St18_Manager_operation.exit

6:                                                ; preds = %3
  %.val.i = load i64, ptr %1, align 8, !tbaa !14
  store i64 %.val.i, ptr %0, align 8, !tbaa !14
  br label %_ZNSt14_Function_base13_Base_managerIZN16cmArgumentParserIZN12_GLOBAL__N_135HandleGetRuntimeDependenciesCommandERKSt6vectorINSt7__cxx1112basic_stringIcSt11char_traitsIcESaIcEEESaIS9_EER17cmExecutionStatusE9ArgumentsE4BindIMSG_N14ArgumentParser10MaybeEmptyISB_EESG_SL_vvEERSH_N2cm18static_string_viewET_EUlRNSJ_8InstanceEE_E10_M_managerERSt9_Any_dataRKSV_St18_Manager_operation.exit

_ZNSt14_Function_base13_Base_managerIZN16cmArgumentParserIZN12_GLOBAL__N_135HandleGetRuntimeDependenciesCommandERKSt6vectorINSt7__cxx1112basic_stringIcSt11char_traitsIcESaIcEEESaIS9_EER17cmExecutionStatusE9ArgumentsE4BindIMSG_N14ArgumentParser10MaybeEmptyISB_EESG_SL_vvEERSH_N2cm18static_string_viewET_EUlRNSJ_8InstanceEE_E10_M_managerERSt9_Any_dataRKSV_St18_Manager_operation.exit: ; preds = %3, %6, %5, %4
  ret i1 false
}